target datalayout = "e-m:e-p270:32:32-p271:32:32-p272:64:64-i64:64-i128:128-f80:128-n8:16:32:64-S128"
target triple = "x86_64-pc-linux-gnu"

; Function Attrs: mustprogress nounwind uwtable
define linkonce_odr noundef double @_ZN6duckdb8AbsValueIdEET_S1_(double noundef %0) #4 comdat {
  %2 = alloca double, align 8
  store double %0, ptr %2, align 8, !tbaa !104
  %3 = load double, ptr %2, align 8, !tbaa !104
  %4 = fcmp olt double %3, 0.000000e+00
  br i1 %4, label %5, label %8

5:                                                ; preds = %1
  %6 = load double, ptr %2, align 8, !tbaa !104
  %7 = fneg double %6
  br label %10

8:                                                ; preds = %1
  %9 = load double, ptr %2, align 8, !tbaa !104
  br label %10

10:                                               ; preds = %8, %5
  %11 = phi double [ %7, %5 ], [ %9, %8 ]
  ret double %11
}

; Function Attrs: mustprogress uwtable
define noundef double @_ZN6duckdb13RoundToNumberEddNS_12NiceRoundingE(double noundef %0, double noundef %1, i32 noundef %2) #0 {
  %4 = alloca double, align 8
  %5 = alloca double, align 8
  %6 = alloca double, align 8
  %7 = alloca i32, align 4
  %8 = alloca double, align 8
  %9 = alloca i32, align 4
  store double %0, ptr %5, align 8, !tbaa !104
  store double %1, ptr %6, align 8, !tbaa !104
  store i32 %2, ptr %7, align 4, !tbaa !98
  call void @llvm.lifetime.start.p0(i64 8, ptr %8) #8
  %10 = load i32, ptr %7, align 4, !tbaa !98
  %11 = icmp eq i32 %10, 1
  br i1 %11, label %12, label %19

12:                                               ; preds = %3
  %13 = load double, ptr %5, align 8, !tbaa !104
  %14 = load double, ptr %6, align 8, !tbaa !104
  %15 = fdiv double %13, %14
  %16 = call double @llvm.round.f64(double %15)
  %17 = load double, ptr %6, align 8, !tbaa !104
  %18 = fmul double %16, %17
  store double %18, ptr %8, align 8, !tbaa !104
  br label %26

19:                                               ; preds = %3
  %20 = load double, ptr %5, align 8, !tbaa !104
  %21 = load double, ptr %6, align 8, !tbaa !104
  %22 = fdiv double %20, %21
  %23 = call double @llvm.ceil.f64(double %22)
  %24 = load double, ptr %6, align 8, !tbaa !104
  %25 = fmul double %23, %24
  store double %25, ptr %8, align 8, !tbaa !104
  br label %26

26:                                               ; preds = %19, %12
  %27 = load double, ptr %8, align 8, !tbaa !104
  %28 = call noundef zeroext i1 @_ZN6duckdb5Value8IsFiniteIdEEbT_(double noundef %27)
  br i1 %28, label %31, label %29

29:                                               ; preds = %26
  %30 = load double, ptr %5, align 8, !tbaa !104
  store double %30, ptr %4, align 8
  store i32 1, ptr %9, align 4
  br label %33

31:                                               ; preds = %26
  %32 = load double, ptr %8, align 8, !tbaa !104
  store double %32, ptr %4, align 8
  store i32 1, ptr %9, align 4
  br label %33

33:                                               ; preds = %31, %29
  call void @llvm.lifetime.end.p0(i64 8, ptr %8) #8
  %34 = load double, ptr %4, align 8
  ret double %34
}

; Function Attrs: mustprogress nounwind uwtable
define internal noundef double @_ZN6duckdbL21GetPreviousPowerOfTenEd(double noundef %0) #4 {
  %2 = alloca double, align 8
  %3 = alloca double, align 8
  %4 = alloca double, align 8
  %5 = alloca i32, align 4
  store double %0, ptr %3, align 8, !tbaa !104
  call void @llvm.lifetime.start.p0(i64 8, ptr %4) #8
  store double 1.000000e+00, ptr %4, align 8, !tbaa !104
  %6 = load double, ptr %3, align 8, !tbaa !104
  %7 = fcmp olt double %6, 1.000000e+00
  br i1 %7, label %8, label %18

8:                                                ; preds = %1
  br label %9

9:                                                ; preds = %13, %8
  %10 = load double, ptr %4, align 8, !tbaa !104
  %11 = load double, ptr %3, align 8, !tbaa !104
  %12 = fcmp ogt double %10, %11
  br i1 %12, label %13, label %16

13:                                               ; preds = %9
  %14 = load double, ptr %4, align 8, !tbaa !104
  %15 = fdiv double %14, 1.000000e+01
  store double %15, ptr %4, align 8, !tbaa !104
  br label %9, !llvm.loop !106

16:                                               ; preds = %9
  %17 = load double, ptr %4, align 8, !tbaa !104
  store double %17, ptr %2, align 8
  store i32 1, ptr %5, align 4
  br label %29

18:                                               ; preds = %1
  br label %19

19:                                               ; preds = %23, %18
  %20 = load double, ptr %4, align 8, !tbaa !104
  %21 = load double, ptr %3, align 8, !tbaa !104
  %22 = fcmp olt double %20, %21
  br i1 %22, label %23, label %26

23:                                               ; preds = %19
  %24 = load double, ptr %4, align 8, !tbaa !104
  %25 = fmul double %24, 1.000000e+01
  store double %25, ptr %4, align 8, !tbaa !104
  br label %19, !llvm.loop !107

26:                                               ; preds = %19
  %27 = load double, ptr %4, align 8, !tbaa !104
  %28 = fdiv double %27, 1.000000e+01
  store double %28, ptr %2, align 8
  store i32 1, ptr %5, align 4
  br label %29

29:                                               ; preds = %26, %16
  call void @llvm.lifetime.end.p0(i64 8, ptr %4) #8
  %30 = load double, ptr %2, align 8
  ret double %30
}

; Function Attrs: mustprogress uwtable
define noundef double @_ZN6duckdb14MakeNumberNiceEddNS_12NiceRoundingE(double noundef %0, double noundef %1, i32 noundef %2) #0 {
  %4 = alloca double, align 8
  %5 = alloca double, align 8
  %6 = alloca double, align 8
  %7 = alloca i32, align 4
  %8 = alloca double, align 8
  %9 = alloca double, align 8
  %10 = alloca double, align 8
  %11 = alloca double, align 8
  %12 = alloca double, align 8
  %13 = alloca i32, align 4
  store double %0, ptr %5, align 8, !tbaa !104
  store double %1, ptr %6, align 8, !tbaa !104
  store i32 %2, ptr %7, align 4, !tbaa !98
  %14 = load double, ptr %5, align 8, !tbaa !104
  %15 = fcmp oeq double %14, 0.000000e+00
  br i1 %15, label %16, label %17

16:                                               ; preds = %3
  store double 0.000000e+00, ptr %4, align 8
  br label %61

17:                                               ; preds = %3
  call void @llvm.lifetime.start.p0(i64 8, ptr %8) #8
  %18 = load double, ptr %6, align 8, !tbaa !104
  %19 = call noundef double @_ZN6duckdbL21GetPreviousPowerOfTenEd(double noundef %18)
  store double %19, ptr %8, align 8, !tbaa !104
  call void @llvm.lifetime.start.p0(i64 8, ptr %9) #8
  %20 = load double, ptr %8, align 8, !tbaa !104
  %21 = fmul double %20, 2.000000e+00
  store double %21, ptr %9, align 8, !tbaa !104
  call void @llvm.lifetime.start.p0(i64 8, ptr %10) #8
  %22 = load double, ptr %8, align 8, !tbaa !104
  store double %22, ptr %10, align 8, !tbaa !104
  %23 = load double, ptr %8, align 8, !tbaa !104
  %24 = fmul double %23, 3.000000e+00
  %25 = load double, ptr %6, align 8, !tbaa !104
  %26 = fcmp ole double %24, %25
  br i1 %26, label %27, label %30

27:                                               ; preds = %17
  %28 = load double, ptr %9, align 8, !tbaa !104
  %29 = fmul double %28, 5.000000e+00
  store double %29, ptr %9, align 8, !tbaa !104
  br label %30

30:                                               ; preds = %27, %17
  %31 = load double, ptr %8, align 8, !tbaa !104
  %32 = fmul double %31, 2.000000e+00
  %33 = load double, ptr %6, align 8, !tbaa !104
  %34 = fcmp ole double %32, %33
  br i1 %34, label %35, label %38

35:                                               ; preds = %30
  %36 = load double, ptr %10, align 8, !tbaa !104
  %37 = fmul double %36, 5.000000e+00
  store double %37, ptr %10, align 8, !tbaa !104
  br label %38

38:                                               ; preds = %35, %30
  call void @llvm.lifetime.start.p0(i64 8, ptr %11) #8
  %39 = load double, ptr %5, align 8, !tbaa !104
  %40 = load double, ptr %9, align 8, !tbaa !104
  %41 = load i32, ptr %7, align 4, !tbaa !98
  %42 = call noundef double @_ZN6duckdb13RoundToNumberEddNS_12NiceRoundingE(double noundef %39, double noundef %40, i32 noundef %41)
  store double %42, ptr %11, align 8, !tbaa !104
  call void @llvm.lifetime.start.p0(i64 8, ptr %12) #8
  %43 = load double, ptr %5, align 8, !tbaa !104
  %44 = load double, ptr %10, align 8, !tbaa !104
  %45 = load i32, ptr %7, align 4, !tbaa !98
  %46 = call noundef double @_ZN6duckdb13RoundToNumberEddNS_12NiceRoundingE(double noundef %43, double noundef %44, i32 noundef %45)
  store double %46, ptr %12, align 8, !tbaa !104
  %47 = load double, ptr %5, align 8, !tbaa !104
  %48 = load double, ptr %11, align 8, !tbaa !104
  %49 = fsub double %47, %48
  %50 = call noundef double @_ZN6duckdb8AbsValueIdEET_S1_(double noundef %49)
  %51 = load double, ptr %5, align 8, !tbaa !104
  %52 = load double, ptr %12, align 8, !tbaa !104
  %53 = fsub double %51, %52
  %54 = call noundef double @_ZN6duckdb8AbsValueIdEET_S1_(double noundef %53)
  %55 = fcmp olt double %50, %54
  br i1 %55, label %56, label %58

56:                                               ; preds = %38
  %57 = load double, ptr %11, align 8, !tbaa !104
  store double %57, ptr %4, align 8
  store i32 1, ptr %13, align 4
  br label %60

58:                                               ; preds = %38
  %59 = load double, ptr %12, align 8, !tbaa !104
  store double %59, ptr %4, align 8
  store i32 1, ptr %13, align 4
  br label %60

60:                                               ; preds = %58, %56
  call void @llvm.lifetime.end.p0(i64 8, ptr %12) #8
  call void @llvm.lifetime.end.p0(i64 8, ptr %11) #8
  call void @llvm.lifetime.end.p0(i64 8, ptr %10) #8
  call void @llvm.lifetime.end.p0(i64 8, ptr %9) #8
  call void @llvm.lifetime.end.p0(i64 8, ptr %8) #8
  br label %61

61:                                               ; preds = %60, %16
  %62 = load double, ptr %4, align 8
  ret double %62
}