; Function Attrs: mustprogress uwtable
define noundef double @_ZN6duckdb14MakeNumberNiceEddNS_12NiceRoundingE(double noundef %0, double noundef %1, i32 noundef %2) local_unnamed_addr #0 {
  %4 = fcmp oeq double %0, 0.000000e+00
  br i1 %4, label %41, label %5

5:                                                ; preds = %3
  %6 = fcmp olt double %1, 1.000000e+00
  br i1 %6, label %.lr.ph14.i, label %.preheader11.i

.preheader11.i:                                   ; preds = %5
  %7 = fcmp ogt double %1, 1.000000e+00
  br i1 %7, label %.lr.ph.i, label %._crit_edge.i

.lr.ph14.i:                                       ; preds = %5, %.lr.ph14.i
  %.013.i = phi double [ %8, %.lr.ph14.i ], [ 1.000000e+00, %5 ]
  %8 = fdiv double %.013.i, 1.000000e+01
  %9 = fcmp ogt double %8, %1
  br i1 %9, label %.lr.ph14.i, label %_ZN6duckdbL21GetPreviousPowerOfTenEd.exit, !llvm.loop !90

.lr.ph.i:                                         ; preds = %.preheader11.i, %.lr.ph.i
  %.112.i = phi double [ %10, %.lr.ph.i ], [ 1.000000e+00, %.preheader11.i ]
  %10 = fmul double %.112.i, 1.000000e+01
  %11 = fcmp olt double %10, %1
  br i1 %11, label %.lr.ph.i, label %._crit_edge.i, !llvm.loop !91

._crit_edge.i:                                    ; preds = %.lr.ph.i, %.preheader11.i
  %.1.lcssa.i = phi double [ 1.000000e+00, %.preheader11.i ], [ %10, %.lr.ph.i ]
  %12 = fdiv double %.1.lcssa.i, 1.000000e+01
  br label %_ZN6duckdbL21GetPreviousPowerOfTenEd.exit

_ZN6duckdbL21GetPreviousPowerOfTenEd.exit:        ; preds = %.lr.ph14.i, %._crit_edge.i
  %.010.i = phi double [ %12, %._crit_edge.i ], [ %8, %.lr.ph14.i ]
  %13 = fmul double %.010.i, 2.000000e+00
  %14 = fmul double %.010.i, 3.000000e+00
  %15 = fcmp ugt double %14, %1
  %16 = fmul double %13, 5.000000e+00
  %.022 = select i1 %15, double %13, double %16
  %17 = fcmp ugt double %13, %1
  %18 = fmul double %.010.i, 5.000000e+00
  %.023 = select i1 %17, double %.010.i, double %18
  %19 = icmp eq i32 %2, 1
  %20 = fdiv double %0, %.022
  br i1 %19, label %21, label %23

21:                                               ; preds = %_ZN6duckdbL21GetPreviousPowerOfTenEd.exit
  %22 = tail call double @llvm.round.f64(double %20)
  br label %_ZN6duckdb13RoundToNumberEddNS_12NiceRoundingE.exit

23:                                               ; preds = %_ZN6duckdbL21GetPreviousPowerOfTenEd.exit
  %24 = tail call double @llvm.ceil.f64(double %20)
  br label %_ZN6duckdb13RoundToNumberEddNS_12NiceRoundingE.exit

_ZN6duckdb13RoundToNumberEddNS_12NiceRoundingE.exit: ; preds = %21, %23
  %.pn.i = phi double [ %22, %21 ], [ %24, %23 ]
  %.0.i = fmul double %.022, %.pn.i
  %25 = tail call noundef zeroext i1 @_ZN6duckdb5Value8IsFiniteIdEEbT_(double noundef %.0.i)
  %.0..i = select i1 %25, double %.0.i, double %0
  %26 = fdiv double %0, %.023
  br i1 %19, label %27, label %29

27:                                               ; preds = %_ZN6duckdb13RoundToNumberEddNS_12NiceRoundingE.exit
  %28 = tail call double @llvm.round.f64(double %26)
  br label %_ZN6duckdb13RoundToNumberEddNS_12NiceRoundingE.exit28

29:                                               ; preds = %_ZN6duckdb13RoundToNumberEddNS_12NiceRoundingE.exit
  %30 = tail call double @llvm.ceil.f64(double %26)
  br label %_ZN6duckdb13RoundToNumberEddNS_12NiceRoundingE.exit28

_ZN6duckdb13RoundToNumberEddNS_12NiceRoundingE.exit28: ; preds = %27, %29
  %.pn.i25 = phi double [ %28, %27 ], [ %30, %29 ]
  %.0.i26 = fmul double %.023, %.pn.i25
  %31 = tail call noundef zeroext i1 @_ZN6duckdb5Value8IsFiniteIdEEbT_(double noundef %.0.i26)
  %.0..i27 = select i1 %31, double %.0.i26, double %0
  %32 = fsub double %0, %.0..i
  %33 = fcmp olt double %32, 0.000000e+00
  %34 = fneg double %32
  %35 = select i1 %33, double %34, double %32
  %36 = fsub double %0, %.0..i27
  %37 = fcmp olt double %36, 0.000000e+00
  %38 = fneg double %36
  %39 = select i1 %37, double %38, double %36
  %40 = fcmp olt double %35, %39
  %.1 = select i1 %40, double %.0..i, double %.0..i27
  br label %41

41:                                               ; preds = %3, %_ZN6duckdb13RoundToNumberEddNS_12NiceRoundingE.exit28
  %.0 = phi double [ %.1, %_ZN6duckdb13RoundToNumberEddNS_12NiceRoundingE.exit28 ], [ 0.000000e+00, %3 ]
  ret double %.0
}